target datalayout = "e-m:e-p270:32:32-p271:32:32-p272:64:64-i64:64-i128:128-f80:128-n8:16:32:64-S128"
target triple = "x86_64-pc-linux-gnu"

%struct.TestConfig = type <{ i32, i8, i8, i8, i8, %"class.std::__cxx11::basic_string", %"class.std::__cxx11::basic_string", %"class.std::__cxx11::basic_string", %"class.std::__cxx11::basic_string", %"class.std::__cxx11::basic_string", i8, [7 x i8], %"class.std::__cxx11::basic_string", %"class.std::__cxx11::basic_string", i8, [7 x i8], %"class.std::__cxx11::basic_string", i8, i8, i8, i8, i8, i8, i8, i8, %"class.std::__cxx11::basic_string", %"class.std::__cxx11::basic_string", i8, [7 x i8], %"class.std::__cxx11::basic_string", %"class.std::__cxx11::basic_string", %"class.std::__cxx11::basic_string", %"class.std::__cxx11::basic_string", %"class.std::__cxx11::basic_string", i8, i8, i8, [5 x i8], %"class.std::__cxx11::basic_string", %"class.std::__cxx11::basic_string", %"class.std::__cxx11::basic_string", i8, [7 x i8], %"class.std::__cxx11::basic_string", i8, [7 x i8], %"class.std::__cxx11::basic_string", i32, i32, i32, i8, i8, i8, i8, i8, i8, [6 x i8], %"class.std::__cxx11::basic_string", %"class.std::__cxx11::basic_string", %"class.std::__cxx11::basic_string", i8, [3 x i8], i32, %"class.std::__cxx11::basic_string", %"class.std::__cxx11::basic_string", i8, i8, i8, i8, i8, i8, i8, i8, i8, i8, [6 x i8], %"class.std::__cxx11::basic_string", i8, i8, i8, i8, i8, [3 x i8], %"class.std::__cxx11::basic_string", i32, i8, i8, i8, i8, i32, i8, i8, i8, i8, i32, i8, [3 x i8] }>
%"class.std::__cxx11::basic_string" = type { %"struct.std::__cxx11::basic_string<char>::_Alloc_hider", i64, %union.anon }
%"struct.std::__cxx11::basic_string<char>::_Alloc_hider" = type { ptr }
%union.anon = type { i64, [8 x i8] }

@_ZL14g_config_index = internal global i32 0, align 4

; Function Attrs: mustprogress uwtable
define internal noundef ptr @_ZL12GetConfigPtrPK6ssl_st(ptr noundef %0) #6 {
  %2 = alloca ptr, align 8
  store ptr %0, ptr %2, align 8, !tbaa !204
  %3 = load ptr, ptr %2, align 8, !tbaa !204
  %4 = load i32, ptr @_ZL14g_config_index, align 4, !tbaa !6
  %5 = call ptr @SSL_get_ex_data(ptr noundef %3, i32 noundef %4)
  ret ptr %5
}

; Function Attrs: mustprogress uwtable
define internal noundef i32 @_ZL8WriteAllP6ssl_stPKhm(ptr noundef %0, ptr noundef %1, i64 noundef %2) #6 {
  %4 = alloca ptr, align 8
  %5 = alloca ptr, align 8
  %6 = alloca i64, align 8
  %7 = alloca ptr, align 8
  %8 = alloca i32, align 4
  store ptr %0, ptr %4, align 8, !tbaa !204
  store ptr %1, ptr %5, align 8, !tbaa !13
  store i64 %2, ptr %6, align 8, !tbaa !28
  call void @llvm.lifetime.start.p0(i64 8, ptr %7) #18
  %9 = load ptr, ptr %4, align 8, !tbaa !204
  %10 = call noundef ptr @_ZL12GetConfigPtrPK6ssl_st(ptr noundef %9)
  store ptr %10, ptr %7, align 8, !tbaa !29
  call void @llvm.lifetime.start.p0(i64 4, ptr %8) #18
  br label %11

11:                                               ; preds = %46, %3
  %12 = load ptr, ptr %4, align 8, !tbaa !204
  %13 = load ptr, ptr %5, align 8, !tbaa !13
  %14 = load i64, ptr %6, align 8, !tbaa !28
  %15 = trunc i64 %14 to i32
  %16 = call i32 @SSL_write(ptr noundef %12, ptr noundef %13, i32 noundef %15)
  store i32 %16, ptr %8, align 4, !tbaa !6
  %17 = load i32, ptr %8, align 4, !tbaa !6
  %18 = icmp sgt i32 %17, 0
  br i1 %18, label %19, label %28

19:                                               ; preds = %11
  %20 = load i32, ptr %8, align 4, !tbaa !6
  %21 = load ptr, ptr %5, align 8, !tbaa !13
  %22 = sext i32 %20 to i64
  %23 = getelementptr inbounds i8, ptr %21, i64 %22
  store ptr %23, ptr %5, align 8, !tbaa !13
  %24 = load i32, ptr %8, align 4, !tbaa !6
  %25 = sext i32 %24 to i64
  %26 = load i64, ptr %6, align 8, !tbaa !28
  %27 = sub i64 %26, %25
  store i64 %27, ptr %6, align 8, !tbaa !28
  br label %28

28:                                               ; preds = %19, %11
  br label %29

29:                                               ; preds = %28
  %30 = load ptr, ptr %7, align 8, !tbaa !29
  %31 = getelementptr inbounds nuw %struct.TestConfig, ptr %30, i32 0, i32 17
  %32 = load i8, ptr %31, align 8, !tbaa !37, !range !23, !noundef !24
  %33 = trunc i8 %32 to i1
  br i1 %33, label %34, label %38

34:                                               ; preds = %29
  %35 = load ptr, ptr %4, align 8, !tbaa !204
  %36 = load i32, ptr %8, align 4, !tbaa !6
  %37 = call noundef zeroext i1 @_ZL10RetryAsyncP6ssl_sti(ptr noundef %35, i32 noundef %36)
  br i1 %37, label %46, label %38

38:                                               ; preds = %34, %29
  %39 = load i32, ptr %8, align 4, !tbaa !6
  %40 = icmp sgt i32 %39, 0
  br i1 %40, label %41, label %44

41:                                               ; preds = %38
  %42 = load i64, ptr %6, align 8, !tbaa !28
  %43 = icmp ugt i64 %42, 0
  br label %44

44:                                               ; preds = %41, %38
  %45 = phi i1 [ false, %38 ], [ %43, %41 ]
  br label %46

46:                                               ; preds = %44, %34
  %47 = phi i1 [ true, %34 ], [ %45, %44 ]
  br i1 %47, label %11, label %48, !llvm.loop !444

48:                                               ; preds = %46
  %49 = load i32, ptr %8, align 4, !tbaa !6
  call void @llvm.lifetime.end.p0(i64 4, ptr %8) #18
  call void @llvm.lifetime.end.p0(i64 8, ptr %7) #18
  ret i32 %49
}