; Function Attrs: mustprogress norecurse uwtable
define internal fastcc noundef i32 @_ZL8WriteAllP6ssl_stPKhm(ptr noundef %0, ptr noundef %1, i64 noundef %2) unnamed_addr #0 {
  %4 = load i32, ptr @_ZL14g_config_index, align 4, !tbaa !6
  %5 = tail call noundef ptr @SSL_get_ex_data(ptr noundef %0, i32 noundef %4)
  %6 = getelementptr inbounds nuw i8, ptr %5, i64 280
  br label %.critedge

.critedge:                                        ; preds = %.critedge.backedge, %3
  %.014 = phi i64 [ %2, %3 ], [ %.115, %.critedge.backedge ]
  %.0 = phi ptr [ %1, %3 ], [ %.1, %.critedge.backedge ]
  %7 = trunc i64 %.014 to i32
  %8 = tail call i32 @SSL_write(ptr noundef %0, ptr noundef %.0, i32 noundef %7)
  %9 = icmp sgt i32 %8, 0
  %narrow = tail call i32 @llvm.smax.i32(i32 %8, i32 0)
  %10 = zext nneg i32 %narrow to i64
  %.115 = sub i64 %.014, %10
  %.1 = getelementptr inbounds nuw i8, ptr %.0, i64 %10
  %11 = load i8, ptr %6, align 8, !tbaa !57, !range !39, !noundef !40
  %12 = trunc nuw i8 %11 to i1
  br i1 %12, label %13, label %17

13:                                               ; preds = %.critedge
  %14 = tail call fastcc noundef zeroext i1 @_ZL10RetryAsyncP6ssl_sti(ptr noundef %0, i32 noundef %8)
  %15 = icmp ne i64 %.115, 0
  %16 = select i1 %9, i1 %15, i1 false
  %or.cond = select i1 %14, i1 true, i1 %16
  br i1 %or.cond, label %.critedge.backedge, label %18

17:                                               ; preds = %.critedge
  %.old = icmp ne i64 %.115, 0
  %.old17 = select i1 %9, i1 %.old, i1 false
  br i1 %.old17, label %.critedge.backedge, label %18

.critedge.backedge:                               ; preds = %17, %13
  br label %.critedge, !llvm.loop !198

18:                                               ; preds = %13, %17
  ret i32 %8
}